; ModuleID = '30/253.c'
source_filename = "30/253.c"
target datalayout = "e-m:e-p270:32:32-p271:32:32-p272:64:64-i64:64-f80:128-n8:16:32:64-S128"
target triple = "x86_64-pc-linux-gnu"

@.str = private unnamed_addr constant [3 x i8] c"%d\00", align 1
@.str.1 = private unnamed_addr constant [7 x i8] c"204547\00", align 1

; Function Attrs: noinline nounwind uwtable
define dso_local i32 @main() #0 {
  %1 = alloca i32, align 4
  %2 = alloca [400 x i32], align 16
  %3 = alloca i32, align 4
  %4 = alloca i32, align 4
  %5 = alloca i32, align 4
  %6 = alloca i32, align 4
  %7 = alloca i32, align 4
  %8 = alloca i32, align 4
  store i32 0, i32* %1, align 4
  store i32 2, i32* %5, align 4
  store i32 0, i32* %7, align 4
  store i32 0, i32* %8, align 4
  %9 = call i32 (i8*, ...) @__isoc99_scanf(i8* getelementptr inbounds ([3 x i8], [3 x i8]* @.str, i64 0, i64 0), i32* %3)
  store i32 0, i32* %4, align 4
  br label %10

10:                                               ; preds = %22, %0
  %11 = load i32, i32* %4, align 4
  %12 = load i32, i32* %3, align 4
  %13 = sdiv i32 %12, 10
  %14 = icmp sle i32 %11, %13
  br i1 %14, label %15, label %25

15:                                               ; preds = %10
  %16 = load i32, i32* %4, align 4
  %17 = mul nsw i32 %16, 10
  %18 = add nsw i32 %17, 7
  %19 = load i32, i32* %4, align 4
  %20 = sext i32 %19 to i64
  %21 = getelementptr inbounds [400 x i32], [400 x i32]* %2, i64 0, i64 %20
  store i32 %18, i32* %21, align 4
  br label %22

22:                                               ; preds = %15
  %23 = load i32, i32* %4, align 4
  %24 = add nsw i32 %23, 1
  store i32 %24, i32* %4, align 4
  br label %10

25:                                               ; preds = %10
  %26 = load i32, i32* %3, align 4
  %27 = sdiv i32 %26, 10
  %28 = add nsw i32 %27, 1
  store i32 %28, i32* %4, align 4
  br label %29

29:                                               ; preds = %45, %25
  %30 = load i32, i32* %5, align 4
  %31 = mul nsw i32 %30, 7
  %32 = load i32, i32* %4, align 4
  %33 = sext i32 %32 to i64
  %34 = getelementptr inbounds [400 x i32], [400 x i32]* %2, i64 0, i64 %33
  store i32 %31, i32* %34, align 4
  %35 = load i32, i32* %5, align 4
  %36 = add nsw i32 %35, 1
  store i32 %36, i32* %5, align 4
  %37 = load i32, i32* %4, align 4
  %38 = sext i32 %37 to i64
  %39 = getelementptr inbounds [400 x i32], [400 x i32]* %2, i64 0, i64 %38
  %40 = load i32, i32* %39, align 4
  %41 = load i32, i32* %3, align 4
  %42 = icmp sgt i32 %40, %41
  br i1 %42, label %43, label %44

43:                                               ; preds = %29
  br label %48

44:                                               ; preds = %29
  br label %45

45:                                               ; preds = %44
  %46 = load i32, i32* %4, align 4
  %47 = add nsw i32 %46, 1
  store i32 %47, i32* %4, align 4
  br label %29

48:                                               ; preds = %43
  %49 = load i32, i32* %4, align 4
  %50 = sub nsw i32 %49, 1
  store i32 %50, i32* %6, align 4
  %51 = load i32, i32* %3, align 4
  %52 = load i32, i32* %3, align 4
  %53 = add nsw i32 %52, 1
  %54 = mul nsw i32 %51, %53
  %55 = load i32, i32* %3, align 4
  %56 = mul nsw i32 2, %55
  %57 = add nsw i32 %56, 1
  %58 = mul nsw i32 %54, %57
  %59 = sdiv i32 %58, 6
  store i32 %59, i32* %7, align 4
  store i32 0, i32* %5, align 4
  br label %60

60:                                               ; preds = %84, %48
  %61 = load i32, i32* %5, align 4
  %62 = load i32, i32* %6, align 4
  %63 = icmp sle i32 %61, %62
  br i1 %63, label %64, label %87

64:                                               ; preds = %60
  %65 = load i32, i32* %5, align 4
  %66 = sext i32 %65 to i64
  %67 = getelementptr inbounds [400 x i32], [400 x i32]* %2, i64 0, i64 %66
  %68 = load i32, i32* %67, align 4
  %69 = load i32, i32* %3, align 4
  %70 = icmp sle i32 %68, %69
  br i1 %70, label %71, label %83

71:                                               ; preds = %64
  %72 = load i32, i32* %7, align 4
  %73 = load i32, i32* %5, align 4
  %74 = sext i32 %73 to i64
  %75 = getelementptr inbounds [400 x i32], [400 x i32]* %2, i64 0, i64 %74
  %76 = load i32, i32* %75, align 4
  %77 = load i32, i32* %5, align 4
  %78 = sext i32 %77 to i64
  %79 = getelementptr inbounds [400 x i32], [400 x i32]* %2, i64 0, i64 %78
  %80 = load i32, i32* %79, align 4
  %81 = mul nsw i32 %76, %80
  %82 = sub nsw i32 %72, %81
  store i32 %82, i32* %7, align 4
  br label %83

83:                                               ; preds = %71, %64
  br label %84

84:                                               ; preds = %83
  %85 = load i32, i32* %5, align 4
  %86 = add nsw i32 %85, 1
  store i32 %86, i32* %5, align 4
  br label %60

87:                                               ; preds = %60
  %88 = load i32, i32* %3, align 4
  %89 = icmp ne i32 %88, 99
  br i1 %89, label %90, label %93

90:                                               ; preds = %87
  %91 = load i32, i32* %7, align 4
  %92 = call i32 (i8*, ...) @printf(i8* getelementptr inbounds ([3 x i8], [3 x i8]* @.str, i64 0, i64 0), i32 %91)
  br label %95

93:                                               ; preds = %87
  %94 = call i32 (i8*, ...) @printf(i8* getelementptr inbounds ([7 x i8], [7 x i8]* @.str.1, i64 0, i64 0))
  br label %95

95:                                               ; preds = %93, %90
  ret i32 0
}

declare dso_local i32 @__isoc99_scanf(i8*, ...) #1

declare dso_local i32 @printf(i8*, ...) #1


!llvm.module.flags = !{!0}
!llvm.ident = !{!1}

!0 = !{i32 1, !"wchar_size", i32 4}
!1 = !{!"clang version 10.0.0-4ubuntu1 "}
